; Function Attrs: mustprogress nounwind uwtable
define dso_local void @_ZN11StatementIfD2Ev(ptr noundef nonnull align 8 dereferenceable(56) initializes((0, 8)) %0) unnamed_addr #7 align 2 {
  store ptr getelementptr inbounds nuw inrange(-16, 80) (i8, ptr @_ZTV11StatementIf, i64 16), ptr %0, align 8, !tbaa !49
  %2 = getelementptr inbounds nuw i8, ptr %0, i64 32
  %3 = load ptr, ptr %2, align 8, !tbaa !74
  %4 = icmp eq ptr %3, null
  br i1 %4, label %9, label %5

5:                                                ; preds = %1
  %6 = load ptr, ptr %3, align 8, !tbaa !49
  %7 = getelementptr inbounds nuw i8, ptr %6, i64 8
  %8 = load ptr, ptr %7, align 8
  tail call void %8(ptr noundef nonnull align 8 dereferenceable(24) %3) #15
  br label %9

9:                                                ; preds = %5, %1
  %10 = getelementptr inbounds nuw i8, ptr %0, i64 40
  %11 = load ptr, ptr %10, align 8, !tbaa !76
  %12 = icmp eq ptr %11, null
  br i1 %12, label %17, label %13

13:                                               ; preds = %9
  %14 = load ptr, ptr %11, align 8, !tbaa !49
  %15 = getelementptr inbounds nuw i8, ptr %14, i64 8
  %16 = load ptr, ptr %15, align 8
  tail call void %16(ptr noundef nonnull align 8 dereferenceable(192) %11) #15
  br label %17

17:                                               ; preds = %13, %9
  %18 = getelementptr inbounds nuw i8, ptr %0, i64 48
  %19 = load ptr, ptr %18, align 8, !tbaa !77
  %20 = icmp eq ptr %19, null
  br i1 %20, label %25, label %21

21:                                               ; preds = %17
  %22 = load ptr, ptr %19, align 8, !tbaa !49
  %23 = getelementptr inbounds nuw i8, ptr %22, i64 8
  %24 = load ptr, ptr %23, align 8
  tail call void %24(ptr noundef nonnull align 8 dereferenceable(192) %19) #15
  br label %25

25:                                               ; preds = %21, %17
  tail call void @_ZN9StatementD2Ev(ptr noundef nonnull align 8 dereferenceable(32) %0) #15
  ret void
}